; Function Attrs: null_pointer_is_valid sspstrong uwtable
define internal noalias noundef ptr @fragment_addresses_ports_temporary_key(ptr noundef readonly captures(none) %0, i32 noundef %1, ptr readnone captures(none) %2) #2 {
  %4 = tail call noalias dereferenceable_or_null(64) ptr @g_slice_alloc(i64 noundef 64) #15
  %5 = getelementptr inbounds nuw i8, ptr %0, i64 208
  %6 = load i32, ptr %5, align 8
  %7 = getelementptr inbounds nuw i8, ptr %0, i64 212
  %8 = load i32, ptr %7, align 4
  %9 = getelementptr inbounds nuw i8, ptr %0, i64 216
  %10 = load ptr, ptr %9, align 8
  store i32 %6, ptr %4, align 8
  %11 = getelementptr inbounds nuw i8, ptr %4, i64 4
  store i32 %8, ptr %11, align 4
  %12 = getelementptr inbounds nuw i8, ptr %4, i64 8
  store ptr %10, ptr %12, align 8
  %13 = getelementptr inbounds nuw i8, ptr %4, i64 16
  store ptr null, ptr %13, align 8
  %14 = getelementptr inbounds nuw i8, ptr %4, i64 24
  %15 = getelementptr inbounds nuw i8, ptr %0, i64 232
  %16 = load i32, ptr %15, align 8
  %17 = getelementptr inbounds nuw i8, ptr %0, i64 236
  %18 = load i32, ptr %17, align 4
  %19 = getelementptr inbounds nuw i8, ptr %0, i64 240
  %20 = load ptr, ptr %19, align 8
  store i32 %16, ptr %14, align 8
  %21 = getelementptr inbounds nuw i8, ptr %4, i64 28
  store i32 %18, ptr %21, align 4
  %22 = getelementptr inbounds nuw i8, ptr %4, i64 32
  store ptr %20, ptr %22, align 8
  %23 = getelementptr inbounds nuw i8, ptr %4, i64 40
  store ptr null, ptr %23, align 8
  %24 = getelementptr inbounds nuw i8, ptr %0, i64 284
  %25 = load i32, ptr %24, align 4
  %26 = getelementptr inbounds nuw i8, ptr %4, i64 48
  store i32 %25, ptr %26, align 8
  %27 = getelementptr inbounds nuw i8, ptr %0, i64 288
  %28 = load i32, ptr %27, align 8
  %29 = getelementptr inbounds nuw i8, ptr %4, i64 52
  store i32 %28, ptr %29, align 4
  %30 = getelementptr inbounds nuw i8, ptr %4, i64 56
  store i32 %1, ptr %30, align 8
  ret ptr %4
}